target datalayout = "e-m:e-p270:32:32-p271:32:32-p272:64:64-i64:64-i128:128-f80:128-n8:16:32:64-S128"
target triple = "x86_64-pc-linux-gnu"

%struct.saucy = type { i32, ptr, ptr, ptr, ptr, %struct.coloring, %struct.coloring, ptr, ptr, ptr, ptr, ptr, i32, i32, ptr, i32, ptr, ptr, ptr, ptr, ptr, ptr, ptr, i32, i32, ptr, i32, ptr, i32, i32, ptr, ptr, ptr, ptr, ptr, ptr, ptr, ptr, ptr, ptr, i32, ptr, ptr, ptr, i32, ptr, i32, ptr, ptr, ptr, ptr, i32, ptr, ptr, i32, ptr, ptr, ptr, ptr, ptr, ptr, ptr, ptr, ptr, ptr, ptr, ptr, ptr, ptr, ptr, ptr, ptr, ptr, ptr, ptr, ptr, ptr, double, i32, i32, i32, ptr, ptr, ptr, ptr }
%struct.coloring = type { ptr, ptr, ptr, ptr }

; Function Attrs: nounwind uwtable
define internal i32 @check_mapping(ptr noundef %0, ptr noundef %1, ptr noundef %2, i32 noundef %3) #0 {
  %5 = alloca ptr, align 8
  %6 = alloca ptr, align 8
  %7 = alloca ptr, align 8
  %8 = alloca i32, align 4
  %9 = alloca i32, align 4
  %10 = alloca i32, align 4
  %11 = alloca i32, align 4
  store ptr %0, ptr %5, align 8
  store ptr %1, ptr %6, align 8
  store ptr %2, ptr %7, align 8
  store i32 %3, ptr %8, align 4
  store i32 1, ptr %11, align 4
  %12 = load ptr, ptr %6, align 8
  %13 = load i32, ptr %8, align 4
  %14 = sext i32 %13 to i64
  %15 = getelementptr inbounds i32, ptr %12, i64 %14
  %16 = load i32, ptr %15, align 4
  store i32 %16, ptr %9, align 4
  br label %17

17:                                               ; preds = %43, %4
  %18 = load i32, ptr %9, align 4
  %19 = load ptr, ptr %6, align 8
  %20 = load i32, ptr %8, align 4
  %21 = add nsw i32 %20, 1
  %22 = sext i32 %21 to i64
  %23 = getelementptr inbounds i32, ptr %19, i64 %22
  %24 = load i32, ptr %23, align 4
  %25 = icmp ne i32 %18, %24
  br i1 %25, label %26, label %46

26:                                               ; preds = %17
  %27 = load ptr, ptr %5, align 8
  %28 = getelementptr inbounds %struct.saucy, ptr %27, i32 0, i32 16
  %29 = load ptr, ptr %28, align 8
  %30 = load ptr, ptr %5, align 8
  %31 = getelementptr inbounds %struct.saucy, ptr %30, i32 0, i32 21
  %32 = load ptr, ptr %31, align 8
  %33 = load ptr, ptr %7, align 8
  %34 = load i32, ptr %9, align 4
  %35 = sext i32 %34 to i64
  %36 = getelementptr inbounds i32, ptr %33, i64 %35
  %37 = load i32, ptr %36, align 4
  %38 = sext i32 %37 to i64
  %39 = getelementptr inbounds i32, ptr %32, i64 %38
  %40 = load i32, ptr %39, align 4
  %41 = sext i32 %40 to i64
  %42 = getelementptr inbounds i8, ptr %29, i64 %41
  store i8 1, ptr %42, align 1
  br label %43

43:                                               ; preds = %26
  %44 = load i32, ptr %9, align 4
  %45 = add nsw i32 %44, 1
  store i32 %45, ptr %9, align 4
  br label %17, !llvm.loop !72

46:                                               ; preds = %17
  %47 = load ptr, ptr %5, align 8
  %48 = getelementptr inbounds %struct.saucy, ptr %47, i32 0, i32 21
  %49 = load ptr, ptr %48, align 8
  %50 = load i32, ptr %8, align 4
  %51 = sext i32 %50 to i64
  %52 = getelementptr inbounds i32, ptr %49, i64 %51
  %53 = load i32, ptr %52, align 4
  store i32 %53, ptr %10, align 4
  %54 = load ptr, ptr %6, align 8
  %55 = load i32, ptr %10, align 4
  %56 = sext i32 %55 to i64
  %57 = getelementptr inbounds i32, ptr %54, i64 %56
  %58 = load i32, ptr %57, align 4
  store i32 %58, ptr %9, align 4
  br label %59

59:                                               ; preds = %86, %46
  %60 = load i32, ptr %11, align 4
  %61 = icmp ne i32 %60, 0
  br i1 %61, label %62, label %71

62:                                               ; preds = %59
  %63 = load i32, ptr %9, align 4
  %64 = load ptr, ptr %6, align 8
  %65 = load i32, ptr %10, align 4
  %66 = add nsw i32 %65, 1
  %67 = sext i32 %66 to i64
  %68 = getelementptr inbounds i32, ptr %64, i64 %67
  %69 = load i32, ptr %68, align 4
  %70 = icmp ne i32 %63, %69
  br label %71

71:                                               ; preds = %62, %59
  %72 = phi i1 [ false, %59 ], [ %70, %62 ]
  br i1 %72, label %73, label %89

73:                                               ; preds = %71
  %74 = load ptr, ptr %5, align 8
  %75 = getelementptr inbounds %struct.saucy, ptr %74, i32 0, i32 16
  %76 = load ptr, ptr %75, align 8
  %77 = load ptr, ptr %7, align 8
  %78 = load i32, ptr %9, align 4
  %79 = sext i32 %78 to i64
  %80 = getelementptr inbounds i32, ptr %77, i64 %79
  %81 = load i32, ptr %80, align 4
  %82 = sext i32 %81 to i64
  %83 = getelementptr inbounds i8, ptr %76, i64 %82
  %84 = load i8, ptr %83, align 1
  %85 = sext i8 %84 to i32
  store i32 %85, ptr %11, align 4
  br label %86

86:                                               ; preds = %73
  %87 = load i32, ptr %9, align 4
  %88 = add nsw i32 %87, 1
  store i32 %88, ptr %9, align 4
  br label %59, !llvm.loop !73

89:                                               ; preds = %71
  %90 = load ptr, ptr %6, align 8
  %91 = load i32, ptr %8, align 4
  %92 = sext i32 %91 to i64
  %93 = getelementptr inbounds i32, ptr %90, i64 %92
  %94 = load i32, ptr %93, align 4
  store i32 %94, ptr %9, align 4
  br label %95

95:                                               ; preds = %121, %89
  %96 = load i32, ptr %9, align 4
  %97 = load ptr, ptr %6, align 8
  %98 = load i32, ptr %8, align 4
  %99 = add nsw i32 %98, 1
  %100 = sext i32 %99 to i64
  %101 = getelementptr inbounds i32, ptr %97, i64 %100
  %102 = load i32, ptr %101, align 4
  %103 = icmp ne i32 %96, %102
  br i1 %103, label %104, label %124

104:                                              ; preds = %95
  %105 = load ptr, ptr %5, align 8
  %106 = getelementptr inbounds %struct.saucy, ptr %105, i32 0, i32 16
  %107 = load ptr, ptr %106, align 8
  %108 = load ptr, ptr %5, align 8
  %109 = getelementptr inbounds %struct.saucy, ptr %108, i32 0, i32 21
  %110 = load ptr, ptr %109, align 8
  %111 = load ptr, ptr %7, align 8
  %112 = load i32, ptr %9, align 4
  %113 = sext i32 %112 to i64
  %114 = getelementptr inbounds i32, ptr %111, i64 %113
  %115 = load i32, ptr %114, align 4
  %116 = sext i32 %115 to i64
  %117 = getelementptr inbounds i32, ptr %110, i64 %116
  %118 = load i32, ptr %117, align 4
  %119 = sext i32 %118 to i64
  %120 = getelementptr inbounds i8, ptr %107, i64 %119
  store i8 0, ptr %120, align 1
  br label %121

121:                                              ; preds = %104
  %122 = load i32, ptr %9, align 4
  %123 = add nsw i32 %122, 1
  store i32 %123, ptr %9, align 4
  br label %95, !llvm.loop !74

124:                                              ; preds = %95
  %125 = load i32, ptr %11, align 4
  ret i32 %125
}

; Function Attrs: nounwind uwtable
define internal i32 @is_directed_automorphism(ptr noundef %0) #0 {
  %2 = alloca i32, align 4
  %3 = alloca ptr, align 8
  %4 = alloca i32, align 4
  %5 = alloca i32, align 4
  store ptr %0, ptr %3, align 8
  store i32 0, ptr %4, align 4
  br label %6

6:                                                ; preds = %44, %1
  %7 = load i32, ptr %4, align 4
  %8 = load ptr, ptr %3, align 8
  %9 = getelementptr inbounds %struct.saucy, ptr %8, i32 0, i32 44
  %10 = load i32, ptr %9, align 8
  %11 = icmp slt i32 %7, %10
  br i1 %11, label %12, label %47

12:                                               ; preds = %6
  %13 = load ptr, ptr %3, align 8
  %14 = getelementptr inbounds %struct.saucy, ptr %13, i32 0, i32 47
  %15 = load ptr, ptr %14, align 8
  %16 = load i32, ptr %4, align 4
  %17 = sext i32 %16 to i64
  %18 = getelementptr inbounds i32, ptr %15, i64 %17
  %19 = load i32, ptr %18, align 4
  store i32 %19, ptr %5, align 4
  %20 = load ptr, ptr %3, align 8
  %21 = load ptr, ptr %3, align 8
  %22 = getelementptr inbounds %struct.saucy, ptr %21, i32 0, i32 1
  %23 = load ptr, ptr %22, align 8
  %24 = load ptr, ptr %3, align 8
  %25 = getelementptr inbounds %struct.saucy, ptr %24, i32 0, i32 2
  %26 = load ptr, ptr %25, align 8
  %27 = load i32, ptr %5, align 4
  %28 = call i32 @check_mapping(ptr noundef %20, ptr noundef %23, ptr noundef %26, i32 noundef %27)
  %29 = icmp ne i32 %28, 0
  br i1 %29, label %31, label %30

30:                                               ; preds = %12
  store i32 0, ptr %2, align 4
  br label %48

31:                                               ; preds = %12
  %32 = load ptr, ptr %3, align 8
  %33 = load ptr, ptr %3, align 8
  %34 = getelementptr inbounds %struct.saucy, ptr %33, i32 0, i32 3
  %35 = load ptr, ptr %34, align 8
  %36 = load ptr, ptr %3, align 8
  %37 = getelementptr inbounds %struct.saucy, ptr %36, i32 0, i32 4
  %38 = load ptr, ptr %37, align 8
  %39 = load i32, ptr %5, align 4
  %40 = call i32 @check_mapping(ptr noundef %32, ptr noundef %35, ptr noundef %38, i32 noundef %39)
  %41 = icmp ne i32 %40, 0
  br i1 %41, label %43, label %42

42:                                               ; preds = %31
  store i32 0, ptr %2, align 4
  br label %48

43:                                               ; preds = %31
  br label %44

44:                                               ; preds = %43
  %45 = load i32, ptr %4, align 4
  %46 = add nsw i32 %45, 1
  store i32 %46, ptr %4, align 4
  br label %6, !llvm.loop !24

47:                                               ; preds = %6
  store i32 1, ptr %2, align 4
  br label %48

48:                                               ; preds = %47, %42, %30
  %49 = load i32, ptr %2, align 4
  ret i32 %49
}