; Function Attrs: nofree norecurse nosync nounwind memory(readwrite, inaccessiblemem: none) uwtable
define internal range(i32 0, 2) i32 @is_directed_automorphism(ptr noundef readonly captures(none) %0) #2 {
  %2 = getelementptr inbounds nuw i8, ptr %0, i64 376
  %3 = load i32, ptr %2, align 8
  %4 = icmp sgt i32 %3, 0
  br i1 %4, label %.lr.ph44, label %._crit_edge

.lr.ph44:                                         ; preds = %1
  %5 = getelementptr inbounds nuw i8, ptr %0, i64 400
  %6 = getelementptr inbounds nuw i8, ptr %0, i64 8
  %7 = getelementptr inbounds nuw i8, ptr %0, i64 16
  %8 = getelementptr inbounds nuw i8, ptr %0, i64 168
  %9 = getelementptr inbounds nuw i8, ptr %0, i64 208
  %10 = getelementptr inbounds nuw i8, ptr %0, i64 24
  %11 = getelementptr inbounds nuw i8, ptr %0, i64 32
  br label %16

12:                                               ; preds = %check_mapping.exit33
  %indvars.iv.next = add nuw nsw i64 %indvars.iv, 1
  %13 = load i32, ptr %2, align 8
  %14 = sext i32 %13 to i64
  %15 = icmp slt i64 %indvars.iv.next, %14
  br i1 %15, label %16, label %._crit_edge, !llvm.loop !46

16:                                               ; preds = %.lr.ph44, %12
  %indvars.iv = phi i64 [ 0, %.lr.ph44 ], [ %indvars.iv.next, %12 ]
  %17 = load ptr, ptr %5, align 8
  %18 = getelementptr inbounds nuw i32, ptr %17, i64 %indvars.iv
  %19 = load i32, ptr %18, align 4
  %20 = load ptr, ptr %6, align 8
  %21 = load ptr, ptr %7, align 8
  %22 = sext i32 %19 to i64
  %23 = getelementptr inbounds i32, ptr %20, i64 %22
  %24 = load i32, ptr %23, align 4
  %25 = getelementptr i8, ptr %23, i64 4
  %26 = load i32, ptr %25, align 4
  %.not36.i = icmp eq i32 %24, %26
  br i1 %.not36.i, label %._crit_edge.i, label %.lr.ph.i

.lr.ph.i:                                         ; preds = %16
  %27 = sext i32 %24 to i64
  br label %28

28:                                               ; preds = %28, %.lr.ph.i
  %indvars.iv.i = phi i64 [ %27, %.lr.ph.i ], [ %indvars.iv.next.i, %28 ]
  %29 = load ptr, ptr %8, align 8
  %30 = load ptr, ptr %9, align 8
  %31 = getelementptr inbounds i32, ptr %21, i64 %indvars.iv.i
  %32 = load i32, ptr %31, align 4
  %33 = sext i32 %32 to i64
  %34 = getelementptr inbounds i32, ptr %30, i64 %33
  %35 = load i32, ptr %34, align 4
  %36 = sext i32 %35 to i64
  %37 = getelementptr inbounds i8, ptr %29, i64 %36
  store i8 1, ptr %37, align 1
  %indvars.iv.next.i = add nsw i64 %indvars.iv.i, 1
  %38 = load i32, ptr %25, align 4
  %39 = trunc nsw i64 %indvars.iv.next.i to i32
  %.not.i = icmp eq i32 %38, %39
  br i1 %.not.i, label %._crit_edge.i, label %28, !llvm.loop !47

._crit_edge.i:                                    ; preds = %28, %16
  %40 = phi i32 [ %24, %16 ], [ %38, %28 ]
  %41 = load ptr, ptr %9, align 8
  %42 = getelementptr inbounds i32, ptr %41, i64 %22
  %43 = load i32, ptr %42, align 4
  %44 = sext i32 %43 to i64
  %45 = getelementptr inbounds i32, ptr %20, i64 %44
  %46 = load i32, ptr %45, align 4
  %47 = getelementptr i8, ptr %45, i64 4
  %48 = load i32, ptr %47, align 4
  %sext.i = sext i32 %48 to i64
  %49 = icmp eq i32 %46, %48
  br i1 %49, label %.critedge.i, label %.lr.ph

.lr.ph:                                           ; preds = %._crit_edge.i
  %50 = sext i32 %46 to i64
  %51 = load ptr, ptr %8, align 8
  br label %52

52:                                               ; preds = %52, %.lr.ph
  %indvars.iv45.i35 = phi i64 [ %50, %.lr.ph ], [ %indvars.iv.next46.i, %52 ]
  %53 = getelementptr inbounds i32, ptr %21, i64 %indvars.iv45.i35
  %54 = load i32, ptr %53, align 4
  %55 = sext i32 %54 to i64
  %56 = getelementptr inbounds i8, ptr %51, i64 %55
  %57 = load i8, ptr %56, align 1
  %.not33.i = icmp eq i8 %57, 0
  %indvars.iv.next46.i = add nsw i64 %indvars.iv45.i35, 1
  %58 = icmp eq i64 %indvars.iv.next46.i, %sext.i
  %or.cond = select i1 %.not33.i, i1 true, i1 %58
  br i1 %or.cond, label %.critedge.i, label %52, !llvm.loop !48

.critedge.i:                                      ; preds = %52, %._crit_edge.i
  %.not = phi i1 [ false, %._crit_edge.i ], [ %.not33.i, %52 ]
  %59 = load i32, ptr %23, align 4
  %.not3540.i = icmp eq i32 %59, %40
  br i1 %.not3540.i, label %check_mapping.exit, label %.lr.ph42.i

.lr.ph42.i:                                       ; preds = %.critedge.i
  %60 = sext i32 %59 to i64
  br label %61

61:                                               ; preds = %61, %.lr.ph42.i
  %indvars.iv48.i = phi i64 [ %60, %.lr.ph42.i ], [ %indvars.iv.next49.i, %61 ]
  %62 = load ptr, ptr %8, align 8
  %63 = load ptr, ptr %9, align 8
  %64 = getelementptr inbounds i32, ptr %21, i64 %indvars.iv48.i
  %65 = load i32, ptr %64, align 4
  %66 = sext i32 %65 to i64
  %67 = getelementptr inbounds i32, ptr %63, i64 %66
  %68 = load i32, ptr %67, align 4
  %69 = sext i32 %68 to i64
  %70 = getelementptr inbounds i8, ptr %62, i64 %69
  store i8 0, ptr %70, align 1
  %indvars.iv.next49.i = add nsw i64 %indvars.iv48.i, 1
  %71 = load i32, ptr %25, align 4
  %72 = trunc nsw i64 %indvars.iv.next49.i to i32
  %.not35.i = icmp eq i32 %71, %72
  br i1 %.not35.i, label %check_mapping.exit, label %61, !llvm.loop !49

check_mapping.exit:                               ; preds = %61, %.critedge.i
  br i1 %.not, label %._crit_edge, label %73

73:                                               ; preds = %check_mapping.exit
  %74 = load ptr, ptr %10, align 8
  %75 = load ptr, ptr %11, align 8
  %76 = getelementptr inbounds i32, ptr %74, i64 %22
  %77 = load i32, ptr %76, align 4
  %78 = getelementptr i8, ptr %76, i64 4
  %79 = load i32, ptr %78, align 4
  %.not36.i15 = icmp eq i32 %77, %79
  br i1 %.not36.i15, label %._crit_edge.i20, label %.lr.ph.i16

.lr.ph.i16:                                       ; preds = %73
  %80 = sext i32 %77 to i64
  br label %81

81:                                               ; preds = %81, %.lr.ph.i16
  %indvars.iv.i17 = phi i64 [ %80, %.lr.ph.i16 ], [ %indvars.iv.next.i18, %81 ]
  %82 = load ptr, ptr %8, align 8
  %83 = load ptr, ptr %9, align 8
  %84 = getelementptr inbounds i32, ptr %75, i64 %indvars.iv.i17
  %85 = load i32, ptr %84, align 4
  %86 = sext i32 %85 to i64
  %87 = getelementptr inbounds i32, ptr %83, i64 %86
  %88 = load i32, ptr %87, align 4
  %89 = sext i32 %88 to i64
  %90 = getelementptr inbounds i8, ptr %82, i64 %89
  store i8 1, ptr %90, align 1
  %indvars.iv.next.i18 = add nsw i64 %indvars.iv.i17, 1
  %91 = load i32, ptr %78, align 4
  %92 = trunc nsw i64 %indvars.iv.next.i18 to i32
  %.not.i19 = icmp eq i32 %91, %92
  br i1 %.not.i19, label %._crit_edge.i20, label %81, !llvm.loop !47

._crit_edge.i20:                                  ; preds = %81, %73
  %93 = phi i32 [ %77, %73 ], [ %91, %81 ]
  %94 = load ptr, ptr %9, align 8
  %95 = getelementptr inbounds i32, ptr %94, i64 %22
  %96 = load i32, ptr %95, align 4
  %97 = sext i32 %96 to i64
  %98 = getelementptr inbounds i32, ptr %74, i64 %97
  %99 = load i32, ptr %98, align 4
  %100 = getelementptr i8, ptr %98, i64 4
  %101 = load i32, ptr %100, align 4
  %sext.i21 = sext i32 %101 to i64
  %102 = icmp eq i32 %99, %101
  br i1 %102, label %.critedge.i26, label %.lr.ph39

.lr.ph39:                                         ; preds = %._crit_edge.i20
  %103 = sext i32 %99 to i64
  %104 = load ptr, ptr %8, align 8
  br label %105

105:                                              ; preds = %105, %.lr.ph39
  %indvars.iv45.i2238 = phi i64 [ %103, %.lr.ph39 ], [ %indvars.iv.next46.i24, %105 ]
  %106 = getelementptr inbounds i32, ptr %75, i64 %indvars.iv45.i2238
  %107 = load i32, ptr %106, align 4
  %108 = sext i32 %107 to i64
  %109 = getelementptr inbounds i8, ptr %104, i64 %108
  %110 = load i8, ptr %109, align 1
  %.not33.i25 = icmp eq i8 %110, 0
  %indvars.iv.next46.i24 = add nsw i64 %indvars.iv45.i2238, 1
  %111 = icmp eq i64 %indvars.iv.next46.i24, %sext.i21
  %or.cond51 = select i1 %.not33.i25, i1 true, i1 %111
  br i1 %or.cond51, label %.critedge.i26, label %105, !llvm.loop !48

.critedge.i26:                                    ; preds = %105, %._crit_edge.i20
  %.not14 = phi i1 [ false, %._crit_edge.i20 ], [ %.not33.i25, %105 ]
  %112 = load i32, ptr %76, align 4
  %.not3540.i28 = icmp eq i32 %112, %93
  br i1 %.not3540.i28, label %check_mapping.exit33, label %.lr.ph42.i29

.lr.ph42.i29:                                     ; preds = %.critedge.i26
  %113 = sext i32 %112 to i64
  br label %114

114:                                              ; preds = %114, %.lr.ph42.i29
  %indvars.iv48.i30 = phi i64 [ %113, %.lr.ph42.i29 ], [ %indvars.iv.next49.i31, %114 ]
  %115 = load ptr, ptr %8, align 8
  %116 = load ptr, ptr %9, align 8
  %117 = getelementptr inbounds i32, ptr %75, i64 %indvars.iv48.i30
  %118 = load i32, ptr %117, align 4
  %119 = sext i32 %118 to i64
  %120 = getelementptr inbounds i32, ptr %116, i64 %119
  %121 = load i32, ptr %120, align 4
  %122 = sext i32 %121 to i64
  %123 = getelementptr inbounds i8, ptr %115, i64 %122
  store i8 0, ptr %123, align 1
  %indvars.iv.next49.i31 = add nsw i64 %indvars.iv48.i30, 1
  %124 = load i32, ptr %78, align 4
  %125 = trunc nsw i64 %indvars.iv.next49.i31 to i32
  %.not35.i32 = icmp eq i32 %124, %125
  br i1 %.not35.i32, label %check_mapping.exit33, label %114, !llvm.loop !49

check_mapping.exit33:                             ; preds = %114, %.critedge.i26
  br i1 %.not14, label %._crit_edge, label %12

._crit_edge:                                      ; preds = %check_mapping.exit, %check_mapping.exit33, %12, %1
  %.0 = phi i32 [ 1, %1 ], [ 1, %12 ], [ 0, %check_mapping.exit33 ], [ 0, %check_mapping.exit ]
  ret i32 %.0
}